target datalayout = "e-m:e-p270:32:32-p271:32:32-p272:64:64-i64:64-i128:128-f80:128-n8:16:32:64-S128"
target triple = "x86_64-pc-linux-gnu"

; Function Attrs: mustprogress uwtable
define hidden noundef zeroext i1 @_ZN10duckdb_re212re2_internal5ParseIiEEbPKcmPT_i(ptr noundef %0, i64 noundef %1, ptr noundef %2, i32 noundef %3) #1 {
  %5 = alloca i1, align 1
  %6 = alloca ptr, align 8
  %7 = alloca i64, align 8
  %8 = alloca ptr, align 8
  %9 = alloca i32, align 4
  %10 = alloca i64, align 8
  %11 = alloca i32, align 4
  store ptr %0, ptr %6, align 8, !tbaa !31
  store i64 %1, ptr %7, align 8, !tbaa !83
  store ptr %2, ptr %8, align 8, !tbaa !185
  store i32 %3, ptr %9, align 4, !tbaa !3
  call void @llvm.lifetime.start.p0(i64 8, ptr %10) #20
  %12 = load ptr, ptr %6, align 8, !tbaa !31
  %13 = load i64, ptr %7, align 8, !tbaa !83
  %14 = load i32, ptr %9, align 4, !tbaa !3
  %15 = call noundef zeroext i1 @_ZN10duckdb_re212re2_internal5ParseIlEEbPKcmPT_i(ptr noundef %12, i64 noundef %13, ptr noundef %10, i32 noundef %14)
  br i1 %15, label %17, label %16

16:                                               ; preds = %4
  store i1 false, ptr %5, align 1
  store i32 1, ptr %11, align 4
  br label %32

17:                                               ; preds = %4
  %18 = load i64, ptr %10, align 8, !tbaa !83
  %19 = trunc i64 %18 to i32
  %20 = sext i32 %19 to i64
  %21 = load i64, ptr %10, align 8, !tbaa !83
  %22 = icmp ne i64 %20, %21
  br i1 %22, label %23, label %24

23:                                               ; preds = %17
  store i1 false, ptr %5, align 1
  store i32 1, ptr %11, align 4
  br label %32

24:                                               ; preds = %17
  %25 = load ptr, ptr %8, align 8, !tbaa !185
  %26 = icmp eq ptr %25, null
  br i1 %26, label %27, label %28

27:                                               ; preds = %24
  store i1 true, ptr %5, align 1
  store i32 1, ptr %11, align 4
  br label %32

28:                                               ; preds = %24
  %29 = load i64, ptr %10, align 8, !tbaa !83
  %30 = trunc i64 %29 to i32
  %31 = load ptr, ptr %8, align 8, !tbaa !185
  store i32 %30, ptr %31, align 4, !tbaa !3
  store i1 true, ptr %5, align 1
  store i32 1, ptr %11, align 4
  br label %32

32:                                               ; preds = %28, %27, %23, %16
  call void @llvm.lifetime.end.p0(i64 8, ptr %10) #20
  %33 = load i1, ptr %5, align 1
  ret i1 %33
}