; Function Attrs: mustprogress nofree nounwind uwtable
define hidden noundef zeroext i1 @_ZN10duckdb_re212re2_internal5ParseIiEEbPKcmPT_i(ptr noundef readonly captures(none) %0, i64 noundef %1, ptr noundef writeonly captures(address_is_null) %2, i32 noundef %3) local_unnamed_addr #16 {
  %5 = alloca i64, align 8
  call void @llvm.lifetime.start.p0(i64 8, ptr nonnull %5) #31
  %6 = call noundef zeroext i1 @_ZN10duckdb_re212re2_internal5ParseIlEEbPKcmPT_i(ptr noundef %0, i64 noundef %1, ptr noundef nonnull %5, i32 noundef %3)
  br i1 %6, label %7, label %14

7:                                                ; preds = %4
  %8 = load i64, ptr %5, align 8, !tbaa !37
  %9 = trunc i64 %8 to i32
  %10 = add i64 %8, 2147483648
  %.not = icmp ult i64 %10, 4294967296
  br i1 %.not, label %11, label %14

11:                                               ; preds = %7
  %12 = icmp eq ptr %2, null
  br i1 %12, label %14, label %13

13:                                               ; preds = %11
  store i32 %9, ptr %2, align 4, !tbaa !3
  br label %14

14:                                               ; preds = %11, %7, %4, %13
  %.0 = phi i1 [ true, %13 ], [ false, %4 ], [ false, %7 ], [ true, %11 ]
  call void @llvm.lifetime.end.p0(i64 8, ptr nonnull %5) #31
  ret i1 %.0
}